target datalayout = "e-m:e-p270:32:32-p271:32:32-p272:64:64-i64:64-i128:128-f80:128-n8:16:32:64-S128"
target triple = "x86_64-pc-linux-gnu"

%struct.gz_state = type { %struct.gzFile_s, i32, i32, ptr, i32, i32, ptr, ptr, i32, i32, i64, i32, i32, i32, i32, i32, i64, i32, i32, ptr, %struct.z_stream_s }
%struct.gzFile_s = type { i32, ptr, i64 }
%struct.z_stream_s = type { ptr, i32, i64, ptr, i32, i64, ptr, ptr, ptr, ptr, ptr, i32, i64, i64 }

; Function Attrs: nounwind uwtable
define internal i32 @gz_zero(ptr noundef %0, i64 noundef %1) #0 {
  %3 = alloca i32, align 4
  %4 = alloca ptr, align 8
  %5 = alloca i64, align 8
  %6 = alloca i32, align 4
  %7 = alloca i32, align 4
  %8 = alloca ptr, align 8
  %9 = alloca i32, align 4
  store ptr %0, ptr %4, align 8, !tbaa !8
  store i64 %1, ptr %5, align 8, !tbaa !19
  call void @llvm.lifetime.start.p0(i64 4, ptr %6) #10
  call void @llvm.lifetime.start.p0(i64 4, ptr %7) #10
  call void @llvm.lifetime.start.p0(i64 8, ptr %8) #10
  %10 = load ptr, ptr %4, align 8, !tbaa !8
  %11 = getelementptr inbounds nuw %struct.gz_state, ptr %10, i32 0, i32 20
  store ptr %11, ptr %8, align 8, !tbaa !30
  %12 = load ptr, ptr %8, align 8, !tbaa !30
  %13 = getelementptr inbounds nuw %struct.z_stream_s, ptr %12, i32 0, i32 1
  %14 = load i32, ptr %13, align 8, !tbaa !32
  %15 = icmp ne i32 %14, 0
  br i1 %15, label %16, label %21

16:                                               ; preds = %2
  %17 = load ptr, ptr %4, align 8, !tbaa !8
  %18 = call i32 @gz_comp(ptr noundef %17, i32 noundef 0)
  %19 = icmp eq i32 %18, -1
  br i1 %19, label %20, label %21

20:                                               ; preds = %16
  store i32 -1, ptr %3, align 4
  store i32 1, ptr %9, align 4
  br label %75

21:                                               ; preds = %16, %2
  store i32 1, ptr %6, align 4, !tbaa !9
  br label %22

22:                                               ; preds = %69, %21
  %23 = load i64, ptr %5, align 8, !tbaa !19
  %24 = icmp ne i64 %23, 0
  br i1 %24, label %25, label %74

25:                                               ; preds = %22
  %26 = load ptr, ptr %4, align 8, !tbaa !8
  %27 = getelementptr inbounds nuw %struct.gz_state, ptr %26, i32 0, i32 4
  %28 = load i32, ptr %27, align 8, !tbaa !20
  %29 = zext i32 %28 to i64
  %30 = load i64, ptr %5, align 8, !tbaa !19
  %31 = icmp sgt i64 %29, %30
  br i1 %31, label %32, label %35

32:                                               ; preds = %25
  %33 = load i64, ptr %5, align 8, !tbaa !19
  %34 = trunc i64 %33 to i32
  br label %39

35:                                               ; preds = %25
  %36 = load ptr, ptr %4, align 8, !tbaa !8
  %37 = getelementptr inbounds nuw %struct.gz_state, ptr %36, i32 0, i32 4
  %38 = load i32, ptr %37, align 8, !tbaa !20
  br label %39

39:                                               ; preds = %35, %32
  %40 = phi i32 [ %34, %32 ], [ %38, %35 ]
  store i32 %40, ptr %7, align 4, !tbaa !9
  %41 = load i32, ptr %6, align 4, !tbaa !9
  %42 = icmp ne i32 %41, 0
  br i1 %42, label %43, label %49

43:                                               ; preds = %39
  %44 = load ptr, ptr %4, align 8, !tbaa !8
  %45 = getelementptr inbounds nuw %struct.gz_state, ptr %44, i32 0, i32 6
  %46 = load ptr, ptr %45, align 8, !tbaa !24
  %47 = load i32, ptr %7, align 4, !tbaa !9
  %48 = zext i32 %47 to i64
  call void @llvm.memset.p0.i64(ptr align 1 %46, i8 0, i64 %48, i1 false)
  store i32 0, ptr %6, align 4, !tbaa !9
  br label %49

49:                                               ; preds = %43, %39
  %50 = load i32, ptr %7, align 4, !tbaa !9
  %51 = load ptr, ptr %8, align 8, !tbaa !30
  %52 = getelementptr inbounds nuw %struct.z_stream_s, ptr %51, i32 0, i32 1
  store i32 %50, ptr %52, align 8, !tbaa !32
  %53 = load ptr, ptr %4, align 8, !tbaa !8
  %54 = getelementptr inbounds nuw %struct.gz_state, ptr %53, i32 0, i32 6
  %55 = load ptr, ptr %54, align 8, !tbaa !24
  %56 = load ptr, ptr %8, align 8, !tbaa !30
  %57 = getelementptr inbounds nuw %struct.z_stream_s, ptr %56, i32 0, i32 0
  store ptr %55, ptr %57, align 8, !tbaa !33
  %58 = load i32, ptr %7, align 4, !tbaa !9
  %59 = zext i32 %58 to i64
  %60 = load ptr, ptr %4, align 8, !tbaa !8
  %61 = getelementptr inbounds nuw %struct.gz_state, ptr %60, i32 0, i32 0
  %62 = getelementptr inbounds nuw %struct.gzFile_s, ptr %61, i32 0, i32 2
  %63 = load i64, ptr %62, align 8, !tbaa !26
  %64 = add nsw i64 %63, %59
  store i64 %64, ptr %62, align 8, !tbaa !26
  %65 = load ptr, ptr %4, align 8, !tbaa !8
  %66 = call i32 @gz_comp(ptr noundef %65, i32 noundef 0)
  %67 = icmp eq i32 %66, -1
  br i1 %67, label %68, label %69

68:                                               ; preds = %49
  store i32 -1, ptr %3, align 4
  store i32 1, ptr %9, align 4
  br label %75

69:                                               ; preds = %49
  %70 = load i32, ptr %7, align 4, !tbaa !9
  %71 = zext i32 %70 to i64
  %72 = load i64, ptr %5, align 8, !tbaa !19
  %73 = sub nsw i64 %72, %71
  store i64 %73, ptr %5, align 8, !tbaa !19
  br label %22, !llvm.loop !35

74:                                               ; preds = %22
  store i32 0, ptr %3, align 4
  store i32 1, ptr %9, align 4
  br label %75

75:                                               ; preds = %74, %68, %20
  call void @llvm.lifetime.end.p0(i64 8, ptr %8) #10
  call void @llvm.lifetime.end.p0(i64 4, ptr %7) #10
  call void @llvm.lifetime.end.p0(i64 4, ptr %6) #10
  %76 = load i32, ptr %3, align 4
  ret i32 %76
}

; Function Attrs: nounwind uwtable
define i32 @gzclose_w(ptr noundef %0) #0 {
  %2 = alloca i32, align 4
  %3 = alloca ptr, align 8
  %4 = alloca i32, align 4
  %5 = alloca ptr, align 8
  %6 = alloca i32, align 4
  store ptr %0, ptr %3, align 8, !tbaa !3
  call void @llvm.lifetime.start.p0(i64 4, ptr %4) #10
  store i32 0, ptr %4, align 4, !tbaa !9
  call void @llvm.lifetime.start.p0(i64 8, ptr %5) #10
  %7 = load ptr, ptr %3, align 8, !tbaa !3
  %8 = icmp eq ptr %7, null
  br i1 %8, label %9, label %10

9:                                                ; preds = %1
  store i32 -2, ptr %2, align 4
  store i32 1, ptr %6, align 4
  br label %79

10:                                               ; preds = %1
  %11 = load ptr, ptr %3, align 8, !tbaa !3
  store ptr %11, ptr %5, align 8, !tbaa !8
  %12 = load ptr, ptr %5, align 8, !tbaa !8
  %13 = getelementptr inbounds nuw %struct.gz_state, ptr %12, i32 0, i32 1
  %14 = load i32, ptr %13, align 8, !tbaa !11
  %15 = icmp ne i32 %14, 31153
  br i1 %15, label %16, label %17

16:                                               ; preds = %10
  store i32 -2, ptr %2, align 4
  store i32 1, ptr %6, align 4
  br label %79

17:                                               ; preds = %10
  %18 = load ptr, ptr %5, align 8, !tbaa !8
  %19 = getelementptr inbounds nuw %struct.gz_state, ptr %18, i32 0, i32 17
  %20 = load i32, ptr %19, align 8, !tbaa !21
  %21 = icmp ne i32 %20, 0
  br i1 %21, label %22, label %36

22:                                               ; preds = %17
  %23 = load ptr, ptr %5, align 8, !tbaa !8
  %24 = getelementptr inbounds nuw %struct.gz_state, ptr %23, i32 0, i32 17
  store i32 0, ptr %24, align 8, !tbaa !21
  %25 = load ptr, ptr %5, align 8, !tbaa !8
  %26 = load ptr, ptr %5, align 8, !tbaa !8
  %27 = getelementptr inbounds nuw %struct.gz_state, ptr %26, i32 0, i32 16
  %28 = load i64, ptr %27, align 8, !tbaa !22
  %29 = call i32 @gz_zero(ptr noundef %25, i64 noundef %28)
  %30 = icmp eq i32 %29, -1
  br i1 %30, label %31, label %35

31:                                               ; preds = %22
  %32 = load ptr, ptr %5, align 8, !tbaa !8
  %33 = getelementptr inbounds nuw %struct.gz_state, ptr %32, i32 0, i32 18
  %34 = load i32, ptr %33, align 4, !tbaa !18
  store i32 %34, ptr %4, align 4, !tbaa !9
  br label %35

35:                                               ; preds = %31, %22
  br label %36

36:                                               ; preds = %35, %17
  %37 = load ptr, ptr %5, align 8, !tbaa !8
  %38 = call i32 @gz_comp(ptr noundef %37, i32 noundef 4)
  %39 = icmp eq i32 %38, -1
  br i1 %39, label %40, label %44

40:                                               ; preds = %36
  %41 = load ptr, ptr %5, align 8, !tbaa !8
  %42 = getelementptr inbounds nuw %struct.gz_state, ptr %41, i32 0, i32 18
  %43 = load i32, ptr %42, align 4, !tbaa !18
  store i32 %43, ptr %4, align 4, !tbaa !9
  br label %44

44:                                               ; preds = %40, %36
  %45 = load ptr, ptr %5, align 8, !tbaa !8
  %46 = getelementptr inbounds nuw %struct.gz_state, ptr %45, i32 0, i32 4
  %47 = load i32, ptr %46, align 8, !tbaa !20
  %48 = icmp ne i32 %47, 0
  br i1 %48, label %49, label %65

49:                                               ; preds = %44
  %50 = load ptr, ptr %5, align 8, !tbaa !8
  %51 = getelementptr inbounds nuw %struct.gz_state, ptr %50, i32 0, i32 8
  %52 = load i32, ptr %51, align 8, !tbaa !40
  %53 = icmp ne i32 %52, 0
  br i1 %53, label %61, label %54

54:                                               ; preds = %49
  %55 = load ptr, ptr %5, align 8, !tbaa !8
  %56 = getelementptr inbounds nuw %struct.gz_state, ptr %55, i32 0, i32 20
  %57 = call i32 @deflateEnd(ptr noundef %56)
  %58 = load ptr, ptr %5, align 8, !tbaa !8
  %59 = getelementptr inbounds nuw %struct.gz_state, ptr %58, i32 0, i32 7
  %60 = load ptr, ptr %59, align 8, !tbaa !41
  call void @free(ptr noundef %60) #10
  br label %61

61:                                               ; preds = %54, %49
  %62 = load ptr, ptr %5, align 8, !tbaa !8
  %63 = getelementptr inbounds nuw %struct.gz_state, ptr %62, i32 0, i32 6
  %64 = load ptr, ptr %63, align 8, !tbaa !24
  call void @free(ptr noundef %64) #10
  br label %65

65:                                               ; preds = %61, %44
  %66 = load ptr, ptr %5, align 8, !tbaa !8
  call void @gz_error(ptr noundef %66, i32 noundef 0, ptr noundef null)
  %67 = load ptr, ptr %5, align 8, !tbaa !8
  %68 = getelementptr inbounds nuw %struct.gz_state, ptr %67, i32 0, i32 3
  %69 = load ptr, ptr %68, align 8, !tbaa !55
  call void @free(ptr noundef %69) #10
  %70 = load ptr, ptr %5, align 8, !tbaa !8
  %71 = getelementptr inbounds nuw %struct.gz_state, ptr %70, i32 0, i32 2
  %72 = load i32, ptr %71, align 4, !tbaa !50
  %73 = call i32 @close(i32 noundef %72)
  %74 = icmp eq i32 %73, -1
  br i1 %74, label %75, label %76

75:                                               ; preds = %65
  store i32 -1, ptr %4, align 4, !tbaa !9
  br label %76

76:                                               ; preds = %75, %65
  %77 = load ptr, ptr %5, align 8, !tbaa !8
  call void @free(ptr noundef %77) #10
  %78 = load i32, ptr %4, align 4, !tbaa !9
  store i32 %78, ptr %2, align 4
  store i32 1, ptr %6, align 4
  br label %79

79:                                               ; preds = %76, %16, %9
  call void @llvm.lifetime.end.p0(i64 8, ptr %5) #10
  call void @llvm.lifetime.end.p0(i64 4, ptr %4) #10
  %80 = load i32, ptr %2, align 4
  ret i32 %80
}